Certificate:
    Data:
        Version: 3 (0x2)
        Serial Number: 1 (0x1)
    Signature Algorithm: sha256WithRSAEncryption
        Issuer: C=CL, ST=SA, L=Santiago, O=TECNOLOGIA-INTEGRAL-SA, OU=ImasD, CN=TECNOLOGIA-INTEGRAL-SA CA/name=TISAVPN/emailAddress=cloud@tecintegral.cl
        Validity
            Not Before: Dec 19 14:36:51 2018 GMT
            Not After : Dec 16 14:36:51 2028 GMT
        Subject: C=CL, ST=SA, L=Santiago, O=TECNOLOGIA-INTEGRAL-SA, OU=ImasD, CN=TISAVPN/name=TISAVPN/emailAddress=cloud@tecintegral.cl
        Subject Public Key Info:
            Public Key Algorithm: rsaEncryption
                Public-Key: (2048 bit)
                Modulus:
                    00:b2:10:60:2d:a7:ea:e3:9f:3f:49:cb:76:be:10:
                    b1:6f:ba:ac:9e:f6:cb:a4:93:1c:e2:a0:6f:55:b5:
                    c3:11:05:d4:b1:e5:7d:33:54:6e:af:94:cc:29:55:
                    13:6b:e7:2c:ff:9d:66:d1:31:e2:2c:4d:8b:c5:dc:
                    91:2d:b4:48:94:5f:dd:1c:bf:52:5c:17:ac:92:fc:
                    f5:a3:5a:18:bf:61:ab:66:89:1b:6e:cf:06:0f:c1:
                    07:98:9f:8d:74:0f:0f:ed:90:cb:91:4e:57:7d:b9:
                    41:8d:39:0b:2c:38:2e:c2:e7:a4:16:07:a8:61:9c:
                    f1:e2:c9:74:7f:92:65:3a:be:11:e8:6e:32:13:09:
                    02:10:41:63:20:0a:c5:a7:a3:01:54:bb:2b:02:0c:
                    33:11:d6:e5:3b:da:c9:78:78:93:71:db:77:75:8f:
                    a8:6b:b5:d9:69:70:ba:a7:50:20:28:99:26:77:b6:
                    5a:50:a2:2f:5a:16:ef:e5:0a:e1:43:fd:3c:23:6d:
                    6f:e3:59:a9:89:3c:1f:77:e1:8c:15:e5:4b:6c:54:
                    2a:ec:0f:28:88:76:ec:4d:5f:5e:2b:b0:3c:af:b7:
                    6b:da:c2:39:ca:52:83:07:3c:43:c6:aa:a7:d3:fb:
                    76:cf:a2:88:35:40:63:a8:5c:2c:e4:ef:29:13:4f:
                    4d:4b
                Exponent: 65537 (0x10001)
        X509v3 extensions:
            X509v3 Basic Constraints: 
                CA:FALSE
            Netscape Cert Type: 
                SSL Server
            Netscape Comment: 
                Easy-RSA Generated Server Certificate
            X509v3 Subject Key Identifier: 
                EB:CE:4C:AD:02:02:95:00:BF:60:B6:C1:30:3B:50:67:AE:66:11:63
            X509v3 Authority Key Identifier: 
                keyid:1B:E7:8E:DA:B7:C0:AE:88:01:D6:FD:CF:8A:7D:41:71:19:30:87:71
                DirName:/C=CL/ST=SA/L=Santiago/O=TECNOLOGIA-INTEGRAL-SA/OU=ImasD/CN=TECNOLOGIA-INTEGRAL-SA CA/name=TISAVPN/emailAddress=cloud@tecintegral.cl
                serial:E3:A7:17:FC:53:FB:81:FF

            X509v3 Extended Key Usage: 
                TLS Web Server Authentication
            X509v3 Key Usage: 
                Digital Signature, Key Encipherment
            X509v3 Subject Alternative Name: 
                DNS:TECNOLOGIA-INTEGRAL-SA
    Signature Algorithm: sha256WithRSAEncryption
         8e:4e:f3:0b:83:ff:b1:c4:51:45:8f:08:80:8f:51:68:c4:13:
         85:49:4f:d7:62:07:0e:72:70:31:58:66:2f:69:ef:8f:7d:5c:
         8a:ff:b2:11:c7:4b:11:2b:38:e5:6a:6d:1c:b7:9e:d7:c5:4e:
         45:73:50:cc:30:66:6e:95:d9:84:3f:9a:5f:17:05:d9:6a:77:
         da:62:e4:0f:b7:84:3c:f9:d2:7f:4a:70:f7:04:d2:69:4f:60:
         ae:22:ee:f7:c1:22:3b:c4:a6:71:47:81:21:4c:7a:93:b7:b7:
         08:bc:a1:f6:bb:84:97:71:fb:f1:b8:e5:13:a6:62:7d:2b:88:
         f4:f4:c1:2e:74:30:11:e9:5f:06:2c:a2:35:66:b6:26:3b:27:
         73:a4:6e:f6:cb:77:97:5b:36:16:98:73:af:f0:93:d3:ed:63:
         d0:ab:52:dc:b4:de:71:b6:db:22:19:a3:00:51:92:c7:80:8a:
         49:41:b1:16:2c:c9:88:7a:7a:4d:9a:c6:40:9a:6b:e1:54:3f:
         7b:60:fe:72:99:d1:db:5a:81:ec:82:4d:e4:00:a1:58:39:cd:
         4a:92:a9:a5:be:0e:7d:f6:a5:c5:52:67:61:82:7d:c1:55:f4:
         cc:76:0c:bf:c0:f5:a1:25:9b:f9:0a:fb:35:a1:46:ba:07:ad:
         3c:a2:f5:83
-----BEGIN CERTIFICATE-----
MIIFjDCCBHSgAwIBAgIBATANBgkqhkiG9w0BAQsFADCBuTELMAkGA1UEBhMCQ0wx
CzAJBgNVBAgTAlNBMREwDwYDVQQHEwhTYW50aWFnbzEfMB0GA1UEChMWVEVDTk9M
T0dJQS1JTlRFR1JBTC1TQTEOMAwGA1UECxMFSW1hc0QxIjAgBgNVBAMTGVRFQ05P
TE9HSUEtSU5URUdSQUwtU0EgQ0ExEDAOBgNVBCkTB1RJU0FWUE4xIzAhBgkqhkiG
9w0BCQEWFGNsb3VkQHRlY2ludGVncmFsLmNsMB4XDTE4MTIxOTE0MzY1MVoXDTI4
MTIxNjE0MzY1MVowgacxCzAJBgNVBAYTAkNMMQswCQYDVQQIEwJTQTERMA8GA1UE
BxMIU2FudGlhZ28xHzAdBgNVBAoTFlRFQ05PTE9HSUEtSU5URUdSQUwtU0ExDjAM
BgNVBAsTBUltYXNEMRAwDgYDVQQDEwdUSVNBVlBOMRAwDgYDVQQpEwdUSVNBVlBO
MSMwIQYJKoZIhvcNAQkBFhRjbG91ZEB0ZWNpbnRlZ3JhbC5jbDCCASIwDQYJKoZI
hvcNAQEBBQADggEPADCCAQoCggEBALIQYC2n6uOfP0nLdr4QsW+6rJ72y6STHOKg
b1W1wxEF1LHlfTNUbq+UzClVE2vnLP+dZtEx4ixNi8XckS20SJRf3Ry/UlwXrJL8
9aNaGL9hq2aJG27PBg/BB5ifjXQPD+2Qy5FOV325QY05Cyw4LsLnpBYHqGGc8eLJ
dH+SZTq+EehuMhMJAhBBYyAKxaejAVS7KwIMMxHW5TvayXh4k3Hbd3WPqGu12Wlw
uqdQICiZJne2WlCiL1oW7+UK4UP9PCNtb+NZqYk8H3fhjBXlS2xUKuwPKIh27E1f
XiuwPK+3a9rCOcpSgwc8Q8aqp9P7ds+iiDVAY6hcLOTvKRNPTUsCAwEAAaOCAa0w
ggGpMAkGA1UdEwQCMAAwEQYJYIZIAYb4QgEBBAQDAgZAMDQGCWCGSAGG+EIBDQQn
FiVFYXN5LVJTQSBHZW5lcmF0ZWQgU2VydmVyIENlcnRpZmljYXRlMB0GA1UdDgQW
BBTrzkytAgKVAL9gtsEwO1BnrmYRYzCB7gYDVR0jBIHmMIHjgBQb547at8CuiAHW
/c+KfUFxGTCHcaGBv6SBvDCBuTELMAkGA1UEBhMCQ0wxCzAJBgNVBAgTAlNBMREw
DwYDVQQHEwhTYW50aWFnbzEfMB0GA1UEChMWVEVDTk9MT0dJQS1JTlRFR1JBTC1T
QTEOMAwGA1UECxMFSW1hc0QxIjAgBgNVBAMTGVRFQ05PTE9HSUEtSU5URUdSQUwt
U0EgQ0ExEDAOBgNVBCkTB1RJU0FWUE4xIzAhBgkqhkiG9w0BCQEWFGNsb3VkQHRl
Y2ludGVncmFsLmNsggkA46cX/FP7gf8wEwYDVR0lBAwwCgYIKwYBBQUHAwEwCwYD
VR0PBAQDAgWgMCEGA1UdEQQaMBiCFlRFQ05PTE9HSUEtSU5URUdSQUwtU0EwDQYJ
KoZIhvcNAQELBQADggEBAI5O8wuD/7HEUUWPCICPUWjEE4VJT9diBw5ycDFYZi9p
7499XIr/shHHSxErOOVqbRy3ntfFTkVzUMwwZm6V2YQ/ml8XBdlqd9pi5A+3hDz5
0n9KcPcE0mlPYK4i7vfBIjvEpnFHgSFMepO3twi8ofa7hJdx+/G45ROmYn0riPT0
wS50MBHpXwYsojVmtiY7J3OkbvbLd5dbNhaYc6/wk9PtY9CrUty03nG22yIZowBR
kseAiklBsRYsyYh6ek2axkCaa+FUP3tg/nKZ0dtageyCTeQAoVg5zUqSqaW+Dn32
pcVSZ2GCfcFV9Mx2DL/A9aElm/kK+zWhRroHrTyi9YM=
-----END CERTIFICATE-----
