Certificate:
    Data:
        Version: 3 (0x2)
        Serial Number: 2 (0x2)
    Signature Algorithm: sha256WithRSAEncryption
        Issuer: C=CL, ST=SA, L=Santiago, O=TECNOLOGIA-INTEGRAL-SA, OU=ImasD, CN=TECNOLOGIA-INTEGRAL-SA CA/name=TISAVPN/emailAddress=cloud@tecintegral.cl
        Validity
            Not Before: Dec 19 14:37:45 2018 GMT
            Not After : Dec 16 14:37:45 2028 GMT
        Subject: C=CL, ST=SA, L=Santiago, O=TECNOLOGIA-INTEGRAL-SA, OU=ImasD, CN=molduras1/name=TISAVPN/emailAddress=cloud@tecintegral.cl
        Subject Public Key Info:
            Public Key Algorithm: rsaEncryption
                Public-Key: (2048 bit)
                Modulus:
                    00:cd:24:1a:e0:6e:a3:cc:98:c7:68:ec:0b:96:c5:
                    9e:c0:9b:a0:f0:42:ff:fc:86:85:17:09:6b:0b:63:
                    c2:2b:4d:c3:2f:99:16:1b:6a:63:6c:44:ab:11:49:
                    f2:55:d0:3f:1e:65:7e:27:9a:8c:70:32:3d:ba:98:
                    17:46:03:98:72:a7:ec:fe:05:28:be:4f:43:ff:fd:
                    2f:9b:99:0f:88:1d:e5:2f:3a:98:cb:aa:97:04:b5:
                    96:58:56:4f:de:3f:56:a6:b0:da:24:5a:c7:12:af:
                    0e:34:79:5b:0f:8c:0b:23:35:08:71:f3:7f:fb:3d:
                    f8:59:55:50:5c:b1:99:66:5d:12:89:25:8a:cc:ba:
                    8d:0e:7b:eb:09:60:c8:0a:e2:a9:3b:88:00:62:1e:
                    b7:96:ab:53:26:cd:06:b8:ca:1c:b6:22:d9:45:8e:
                    dc:03:d2:51:65:49:b6:1c:b6:21:c4:e3:f0:0d:ec:
                    7c:fc:7d:b9:96:22:f1:b9:b8:50:53:c7:11:a8:d7:
                    77:4d:e2:1e:4a:2b:b5:67:c2:75:6f:7c:ae:34:b5:
                    29:e6:e7:e9:8a:51:5e:f4:62:05:00:46:7c:7d:b7:
                    31:9e:ed:a1:f8:0d:b5:2c:e1:0b:09:f9:a8:ad:7f:
                    20:7f:05:55:66:f0:3d:91:f7:88:af:78:af:2b:37:
                    8d:25
                Exponent: 65537 (0x10001)
        X509v3 extensions:
            X509v3 Basic Constraints: 
                CA:FALSE
            Netscape Comment: 
                Easy-RSA Generated Certificate
            X509v3 Subject Key Identifier: 
                F8:8C:8A:95:8B:90:4E:E1:A5:F2:CF:44:77:AA:4F:36:72:0B:A8:12
            X509v3 Authority Key Identifier: 
                keyid:1B:E7:8E:DA:B7:C0:AE:88:01:D6:FD:CF:8A:7D:41:71:19:30:87:71
                DirName:/C=CL/ST=SA/L=Santiago/O=TECNOLOGIA-INTEGRAL-SA/OU=ImasD/CN=TECNOLOGIA-INTEGRAL-SA CA/name=TISAVPN/emailAddress=cloud@tecintegral.cl
                serial:E3:A7:17:FC:53:FB:81:FF

            X509v3 Extended Key Usage: 
                TLS Web Client Authentication
            X509v3 Key Usage: 
                Digital Signature
            X509v3 Subject Alternative Name: 
                DNS:molduras1
    Signature Algorithm: sha256WithRSAEncryption
         00:fb:f2:fe:d7:ff:a7:43:c8:85:fb:b8:2a:f4:22:c2:95:3b:
         27:f8:a8:fa:62:cc:f6:e8:fc:5d:9c:fe:62:ae:5b:81:bc:c4:
         5b:43:87:d5:8c:79:37:f1:08:45:9d:7a:37:d9:8c:18:43:1b:
         c8:02:29:05:c0:01:2c:28:62:0a:b8:bd:68:47:dc:27:2f:8e:
         8f:75:f6:6d:78:30:39:6b:aa:a5:14:cb:82:1f:7e:0f:25:89:
         bc:a6:22:87:df:5a:5e:dd:16:2f:8c:44:e9:81:65:17:f6:00:
         70:d9:5b:6c:6d:45:4a:01:ce:e5:43:bb:78:e6:06:f9:dd:92:
         2a:7f:ef:55:4a:bb:6d:69:6a:fd:d3:92:e2:11:ae:de:7d:be:
         21:ba:1e:61:59:e8:29:5d:8c:a9:3b:a0:d8:b7:dd:9a:f8:ba:
         4e:f0:93:14:a0:88:0e:73:82:63:13:be:38:b1:f4:22:50:62:
         9b:4b:33:0e:e3:29:87:0f:e7:c2:73:61:79:8d:04:35:3c:64:
         45:3a:a4:b3:98:33:d4:97:c5:45:27:48:58:e0:a8:35:d4:5d:
         e2:06:45:23:39:82:72:95:bf:53:83:c9:41:bf:71:f3:b0:43:
         14:a7:03:c6:f6:f8:e4:9b:2f:77:3a:e7:26:2c:95:0c:25:19:
         b3:ce:2a:d6
-----BEGIN CERTIFICATE-----
MIIFZzCCBE+gAwIBAgIBAjANBgkqhkiG9w0BAQsFADCBuTELMAkGA1UEBhMCQ0wx
CzAJBgNVBAgTAlNBMREwDwYDVQQHEwhTYW50aWFnbzEfMB0GA1UEChMWVEVDTk9M
T0dJQS1JTlRFR1JBTC1TQTEOMAwGA1UECxMFSW1hc0QxIjAgBgNVBAMTGVRFQ05P
TE9HSUEtSU5URUdSQUwtU0EgQ0ExEDAOBgNVBCkTB1RJU0FWUE4xIzAhBgkqhkiG
9w0BCQEWFGNsb3VkQHRlY2ludGVncmFsLmNsMB4XDTE4MTIxOTE0Mzc0NVoXDTI4
MTIxNjE0Mzc0NVowgakxCzAJBgNVBAYTAkNMMQswCQYDVQQIEwJTQTERMA8GA1UE
BxMIU2FudGlhZ28xHzAdBgNVBAoTFlRFQ05PTE9HSUEtSU5URUdSQUwtU0ExDjAM
BgNVBAsTBUltYXNEMRIwEAYDVQQDEwltb2xkdXJhczExEDAOBgNVBCkTB1RJU0FW
UE4xIzAhBgkqhkiG9w0BCQEWFGNsb3VkQHRlY2ludGVncmFsLmNsMIIBIjANBgkq
hkiG9w0BAQEFAAOCAQ8AMIIBCgKCAQEAzSQa4G6jzJjHaOwLlsWewJug8EL//IaF
FwlrC2PCK03DL5kWG2pjbESrEUnyVdA/HmV+J5qMcDI9upgXRgOYcqfs/gUovk9D
//0vm5kPiB3lLzqYy6qXBLWWWFZP3j9WprDaJFrHEq8ONHlbD4wLIzUIcfN/+z34
WVVQXLGZZl0SiSWKzLqNDnvrCWDICuKpO4gAYh63lqtTJs0GuMoctiLZRY7cA9JR
ZUm2HLYhxOPwDex8/H25liLxubhQU8cRqNd3TeIeSiu1Z8J1b3yuNLUp5ufpilFe
9GIFAEZ8fbcxnu2h+A21LOELCfmorX8gfwVVZvA9kfeIr3ivKzeNJQIDAQABo4IB
hjCCAYIwCQYDVR0TBAIwADAtBglghkgBhvhCAQ0EIBYeRWFzeS1SU0EgR2VuZXJh
dGVkIENlcnRpZmljYXRlMB0GA1UdDgQWBBT4jIqVi5BO4aXyz0R3qk82cguoEjCB
7gYDVR0jBIHmMIHjgBQb547at8CuiAHW/c+KfUFxGTCHcaGBv6SBvDCBuTELMAkG
A1UEBhMCQ0wxCzAJBgNVBAgTAlNBMREwDwYDVQQHEwhTYW50aWFnbzEfMB0GA1UE
ChMWVEVDTk9MT0dJQS1JTlRFR1JBTC1TQTEOMAwGA1UECxMFSW1hc0QxIjAgBgNV
BAMTGVRFQ05PTE9HSUEtSU5URUdSQUwtU0EgQ0ExEDAOBgNVBCkTB1RJU0FWUE4x
IzAhBgkqhkiG9w0BCQEWFGNsb3VkQHRlY2ludGVncmFsLmNsggkA46cX/FP7gf8w
EwYDVR0lBAwwCgYIKwYBBQUHAwIwCwYDVR0PBAQDAgeAMBQGA1UdEQQNMAuCCW1v
bGR1cmFzMTANBgkqhkiG9w0BAQsFAAOCAQEAAPvy/tf/p0PIhfu4KvQiwpU7J/io
+mLM9uj8XZz+Yq5bgbzEW0OH1Yx5N/EIRZ16N9mMGEMbyAIpBcABLChiCri9aEfc
Jy+Oj3X2bXgwOWuqpRTLgh9+DyWJvKYih99aXt0WL4xE6YFlF/YAcNlbbG1FSgHO
5UO7eOYG+d2SKn/vVUq7bWlq/dOS4hGu3n2+IboeYVnoKV2MqTug2Lfdmvi6TvCT
FKCIDnOCYxO+OLH0IlBim0szDuMphw/nwnNheY0ENTxkRTqks5gz1JfFRSdIWOCo
NdRd4gZFIzmCcpW/U4PJQb9x87BDFKcDxvb45JsvdzrnJiyVDCUZs84q1g==
-----END CERTIFICATE-----
