Certificate:
    Data:
        Version: 3 (0x2)
        Serial Number: 5 (0x5)
    Signature Algorithm: sha256WithRSAEncryption
        Issuer: C=CL, ST=SA, L=Santiago, O=TECNOLOGIA-INTEGRAL-SA, OU=ImasD, CN=TECNOLOGIA-INTEGRAL-SA CA/name=TISAVPN/emailAddress=cloud@tecintegral.cl
        Validity
            Not Before: Aug 19 14:20:49 2019 GMT
            Not After : Aug 16 14:20:49 2029 GMT
        Subject: C=CL, ST=SA, L=Santiago, O=TECNOLOGIA-INTEGRAL-SA, OU=ImasD, CN=pmchs10/name=TISAVPN/emailAddress=cloud@tecintegral.cl
        Subject Public Key Info:
            Public Key Algorithm: rsaEncryption
                Public-Key: (2048 bit)
                Modulus:
                    00:e0:ab:c6:96:75:70:a9:62:18:94:9c:eb:39:7a:
                    b6:d9:41:41:39:56:6d:a5:1b:6f:f0:8a:78:89:bf:
                    14:e1:29:ca:de:d2:a3:f5:9c:44:19:1f:2f:1d:51:
                    a7:66:51:86:05:01:83:6f:c3:85:4d:60:66:41:d8:
                    8a:f2:81:81:80:50:7d:73:5c:04:01:f1:b6:5e:04:
                    d0:2e:d4:06:a4:ee:85:5a:73:03:05:c8:aa:1f:3d:
                    aa:5b:48:9d:4a:50:54:8e:51:97:1d:91:19:87:ff:
                    af:ff:21:b9:da:98:34:a2:31:17:86:ec:3a:82:01:
                    73:10:a5:91:51:b7:e7:d7:63:e3:b3:15:f2:78:65:
                    6b:08:b8:b4:80:91:7a:cb:46:4a:88:0d:72:b0:0e:
                    97:10:df:17:9c:1b:86:c9:f2:51:36:b6:2b:80:de:
                    9f:6b:ba:1a:25:31:08:a7:29:ae:01:83:78:4a:86:
                    07:98:ea:7c:e1:6d:26:7a:54:fb:81:1a:62:9f:a3:
                    f1:96:13:c2:de:5b:a1:c6:3f:64:11:2d:bc:a3:72:
                    a3:58:fe:4c:d7:ed:8d:5f:a6:8e:41:23:b5:0b:5f:
                    c1:fe:eb:41:ea:93:bf:46:f9:87:07:61:98:fd:b9:
                    0c:79:16:35:ee:be:f1:c6:16:3a:74:1a:fb:72:6c:
                    aa:fd
                Exponent: 65537 (0x10001)
        X509v3 extensions:
            X509v3 Basic Constraints: 
                CA:FALSE
            Netscape Comment: 
                Easy-RSA Generated Certificate
            X509v3 Subject Key Identifier: 
                41:FE:61:A2:5A:46:D8:75:3A:4D:C1:F5:30:76:E9:1A:09:F0:17:C5
            X509v3 Authority Key Identifier: 
                keyid:1B:E7:8E:DA:B7:C0:AE:88:01:D6:FD:CF:8A:7D:41:71:19:30:87:71
                DirName:/C=CL/ST=SA/L=Santiago/O=TECNOLOGIA-INTEGRAL-SA/OU=ImasD/CN=TECNOLOGIA-INTEGRAL-SA CA/name=TISAVPN/emailAddress=cloud@tecintegral.cl
                serial:E3:A7:17:FC:53:FB:81:FF

            X509v3 Extended Key Usage: 
                TLS Web Client Authentication
            X509v3 Key Usage: 
                Digital Signature
            X509v3 Subject Alternative Name: 
                DNS:pmchs10
    Signature Algorithm: sha256WithRSAEncryption
         34:3b:10:de:dd:db:aa:fd:af:40:3c:d7:fa:44:0d:50:1c:a4:
         98:d9:72:73:54:8b:7b:04:00:58:19:87:79:20:f8:af:85:a4:
         43:25:b1:cd:d8:38:de:7c:f1:90:f9:17:e9:44:8d:ba:28:f3:
         9b:d4:99:ce:ec:99:61:2d:2c:bb:28:60:af:9a:8b:b1:73:45:
         91:e4:63:b5:a2:4e:3c:53:2b:b2:c5:41:41:ab:f5:3c:e2:2d:
         a9:59:22:d1:a8:66:b1:55:34:47:3e:ca:ac:09:6f:be:3a:5c:
         41:70:27:8e:f4:5a:04:c3:8a:d0:9f:2a:fa:8e:69:cb:03:46:
         eb:74:89:7c:9c:26:9e:03:a9:4e:da:fe:48:a2:fe:61:6b:bd:
         0c:ef:37:bc:e2:b6:38:36:69:10:fb:e7:80:90:52:19:ec:51:
         d9:91:ce:69:1c:a6:4a:8d:1c:c2:23:54:b8:d6:0f:b9:8e:43:
         62:cb:d6:d9:1e:7f:39:0d:7e:2e:97:5f:54:e2:b9:93:70:0b:
         4f:87:fb:31:d3:54:80:fd:4a:dd:f3:ff:e3:a9:9f:78:dc:73:
         8d:19:d1:a1:af:94:fd:e2:5d:d0:cd:9a:28:4a:49:ef:ed:8e:
         31:9d:8c:fb:89:9d:e5:2a:a5:32:6a:c2:f5:3c:d1:50:69:5c:
         41:0d:61:09
-----BEGIN CERTIFICATE-----
MIIFYzCCBEugAwIBAgIBBTANBgkqhkiG9w0BAQsFADCBuTELMAkGA1UEBhMCQ0wx
CzAJBgNVBAgTAlNBMREwDwYDVQQHEwhTYW50aWFnbzEfMB0GA1UEChMWVEVDTk9M
T0dJQS1JTlRFR1JBTC1TQTEOMAwGA1UECxMFSW1hc0QxIjAgBgNVBAMTGVRFQ05P
TE9HSUEtSU5URUdSQUwtU0EgQ0ExEDAOBgNVBCkTB1RJU0FWUE4xIzAhBgkqhkiG
9w0BCQEWFGNsb3VkQHRlY2ludGVncmFsLmNsMB4XDTE5MDgxOTE0MjA0OVoXDTI5
MDgxNjE0MjA0OVowgacxCzAJBgNVBAYTAkNMMQswCQYDVQQIEwJTQTERMA8GA1UE
BxMIU2FudGlhZ28xHzAdBgNVBAoTFlRFQ05PTE9HSUEtSU5URUdSQUwtU0ExDjAM
BgNVBAsTBUltYXNEMRAwDgYDVQQDEwdwbWNoczEwMRAwDgYDVQQpEwdUSVNBVlBO
MSMwIQYJKoZIhvcNAQkBFhRjbG91ZEB0ZWNpbnRlZ3JhbC5jbDCCASIwDQYJKoZI
hvcNAQEBBQADggEPADCCAQoCggEBAOCrxpZ1cKliGJSc6zl6ttlBQTlWbaUbb/CK
eIm/FOEpyt7So/WcRBkfLx1Rp2ZRhgUBg2/DhU1gZkHYivKBgYBQfXNcBAHxtl4E
0C7UBqTuhVpzAwXIqh89qltInUpQVI5Rlx2RGYf/r/8hudqYNKIxF4bsOoIBcxCl
kVG359dj47MV8nhlawi4tICRestGSogNcrAOlxDfF5wbhsnyUTa2K4Den2u6GiUx
CKcprgGDeEqGB5jqfOFtJnpU+4EaYp+j8ZYTwt5bocY/ZBEtvKNyo1j+TNftjV+m
jkEjtQtfwf7rQeqTv0b5hwdhmP25DHkWNe6+8cYWOnQa+3Jsqv0CAwEAAaOCAYQw
ggGAMAkGA1UdEwQCMAAwLQYJYIZIAYb4QgENBCAWHkVhc3ktUlNBIEdlbmVyYXRl
ZCBDZXJ0aWZpY2F0ZTAdBgNVHQ4EFgQUQf5holpG2HU6TcH1MHbpGgnwF8Uwge4G
A1UdIwSB5jCB44AUG+eO2rfArogB1v3Pin1BcRkwh3Ghgb+kgbwwgbkxCzAJBgNV
BAYTAkNMMQswCQYDVQQIEwJTQTERMA8GA1UEBxMIU2FudGlhZ28xHzAdBgNVBAoT
FlRFQ05PTE9HSUEtSU5URUdSQUwtU0ExDjAMBgNVBAsTBUltYXNEMSIwIAYDVQQD
ExlURUNOT0xPR0lBLUlOVEVHUkFMLVNBIENBMRAwDgYDVQQpEwdUSVNBVlBOMSMw
IQYJKoZIhvcNAQkBFhRjbG91ZEB0ZWNpbnRlZ3JhbC5jbIIJAOOnF/xT+4H/MBMG
A1UdJQQMMAoGCCsGAQUFBwMCMAsGA1UdDwQEAwIHgDASBgNVHREECzAJggdwbWNo
czEwMA0GCSqGSIb3DQEBCwUAA4IBAQA0OxDe3duq/a9APNf6RA1QHKSY2XJzVIt7
BABYGYd5IPivhaRDJbHN2DjefPGQ+RfpRI26KPOb1JnO7JlhLSy7KGCvmouxc0WR
5GO1ok48UyuyxUFBq/U84i2pWSLRqGaxVTRHPsqsCW++OlxBcCeO9FoEw4rQnyr6
jmnLA0brdIl8nCaeA6lO2v5Iov5ha70M7ze84rY4NmkQ++eAkFIZ7FHZkc5pHKZK
jRzCI1S41g+5jkNiy9bZHn85DX4ul19U4rmTcAtPh/sx01SA/Urd8//jqZ943HON
GdGhr5T94l3QzZooSknv7Y4xnYz7iZ3lKqUyasL1PNFQaVxBDWEJ
-----END CERTIFICATE-----
