Certificate:
    Data:
        Version: 3 (0x2)
        Serial Number: 6 (0x6)
    Signature Algorithm: sha256WithRSAEncryption
        Issuer: C=CL, ST=SA, L=Santiago, O=TECNOLOGIA-INTEGRAL-SA, OU=ImasD, CN=TECNOLOGIA-INTEGRAL-SA CA/name=TISAVPN/emailAddress=cloud@tecintegral.cl
        Validity
            Not Before: Aug 19 14:21:19 2019 GMT
            Not After : Aug 16 14:21:19 2029 GMT
        Subject: C=CL, ST=SA, L=Santiago, O=TECNOLOGIA-INTEGRAL-SA, OU=ImasD, CN=pmchs9/name=TISAVPN/emailAddress=cloud@tecintegral.cl
        Subject Public Key Info:
            Public Key Algorithm: rsaEncryption
                Public-Key: (2048 bit)
                Modulus:
                    00:d0:c9:32:dc:35:a2:c3:cd:98:09:35:79:c6:cf:
                    fd:84:46:0a:a6:7a:ba:12:a9:85:be:ce:ef:1a:82:
                    7e:bb:43:07:c9:66:a3:8c:5d:1a:98:3e:fc:74:a1:
                    9f:e6:7e:f0:ab:09:45:99:b6:f9:4a:74:64:70:67:
                    2c:4c:99:92:aa:b5:b3:21:cd:5a:fd:ed:7f:60:fc:
                    61:42:bd:05:5e:d2:9e:33:a1:a0:9b:f4:28:15:bd:
                    58:81:d0:e4:3d:b3:ee:59:71:4b:4a:b8:3b:d9:a4:
                    24:51:59:7e:f9:f6:75:9b:6e:71:91:cf:73:40:d7:
                    02:41:74:02:b6:54:2a:05:00:22:09:f0:e2:a7:1e:
                    47:99:99:ff:f0:6f:8e:b0:d0:d9:27:cf:b9:74:f7:
                    8a:c4:a5:da:e1:f2:5a:96:84:67:02:42:15:c7:a3:
                    4a:28:02:9d:af:7a:10:a6:2c:bd:52:cb:2d:12:13:
                    28:e4:6b:b4:39:33:8c:7f:79:c2:57:ab:ac:7b:9c:
                    39:48:b9:97:6c:11:4f:1f:a7:26:c9:a0:12:1c:ce:
                    c6:39:15:a3:a3:d9:a9:f7:a7:b1:90:c1:49:12:23:
                    4f:54:84:10:e2:35:b3:26:81:63:54:8e:b5:78:8b:
                    6c:dc:c9:8d:09:62:f1:57:c5:92:27:06:dd:44:74:
                    68:b5
                Exponent: 65537 (0x10001)
        X509v3 extensions:
            X509v3 Basic Constraints: 
                CA:FALSE
            Netscape Comment: 
                Easy-RSA Generated Certificate
            X509v3 Subject Key Identifier: 
                22:97:53:13:7E:C1:96:8E:4B:90:7C:0E:03:87:D5:CB:93:85:A9:DD
            X509v3 Authority Key Identifier: 
                keyid:1B:E7:8E:DA:B7:C0:AE:88:01:D6:FD:CF:8A:7D:41:71:19:30:87:71
                DirName:/C=CL/ST=SA/L=Santiago/O=TECNOLOGIA-INTEGRAL-SA/OU=ImasD/CN=TECNOLOGIA-INTEGRAL-SA CA/name=TISAVPN/emailAddress=cloud@tecintegral.cl
                serial:E3:A7:17:FC:53:FB:81:FF

            X509v3 Extended Key Usage: 
                TLS Web Client Authentication
            X509v3 Key Usage: 
                Digital Signature
            X509v3 Subject Alternative Name: 
                DNS:pmchs9
    Signature Algorithm: sha256WithRSAEncryption
         66:91:ec:e9:05:21:a8:0d:e0:7e:c7:92:14:30:5c:9e:ff:79:
         7b:d3:9b:f7:4d:de:16:65:c1:af:0f:1c:2b:3c:77:b9:32:59:
         2a:b8:0e:a5:da:2b:30:5e:00:e8:e8:21:a7:33:ec:f9:ac:51:
         f6:04:2e:34:63:af:4b:db:93:0d:c6:7f:3f:f0:ca:ce:24:b8:
         3f:18:da:3a:6a:1f:43:81:9d:93:bb:6b:7b:ea:88:ee:fd:d8:
         67:70:1f:61:61:6d:33:4b:de:30:d0:1d:32:fe:27:8d:0c:3a:
         b7:1b:f8:e3:14:16:9d:10:f5:3d:69:63:59:59:6e:ce:89:08:
         fc:b4:a5:87:f4:d7:9a:78:de:61:fd:3f:18:c7:8c:36:4c:d6:
         b8:bc:a3:6a:93:c3:dc:65:6a:1d:f1:73:ea:8d:4f:7e:02:86:
         f1:19:b3:b4:3b:94:d3:7b:e3:47:5e:00:f4:76:c7:6b:e0:bb:
         76:c7:d3:33:78:2a:4d:b3:59:5d:cf:01:62:17:9c:1e:46:80:
         bf:49:ba:e4:66:56:0d:3a:75:9a:2d:bd:03:c0:29:37:24:36:
         1e:07:30:22:70:86:e1:0e:c2:7a:cc:ac:60:e7:d1:fe:d8:b3:
         3f:2b:ed:fa:86:02:04:cb:33:3e:7b:d3:6f:15:de:9d:56:e0:
         54:9a:8c:f0
-----BEGIN CERTIFICATE-----
MIIFYTCCBEmgAwIBAgIBBjANBgkqhkiG9w0BAQsFADCBuTELMAkGA1UEBhMCQ0wx
CzAJBgNVBAgTAlNBMREwDwYDVQQHEwhTYW50aWFnbzEfMB0GA1UEChMWVEVDTk9M
T0dJQS1JTlRFR1JBTC1TQTEOMAwGA1UECxMFSW1hc0QxIjAgBgNVBAMTGVRFQ05P
TE9HSUEtSU5URUdSQUwtU0EgQ0ExEDAOBgNVBCkTB1RJU0FWUE4xIzAhBgkqhkiG
9w0BCQEWFGNsb3VkQHRlY2ludGVncmFsLmNsMB4XDTE5MDgxOTE0MjExOVoXDTI5
MDgxNjE0MjExOVowgaYxCzAJBgNVBAYTAkNMMQswCQYDVQQIEwJTQTERMA8GA1UE
BxMIU2FudGlhZ28xHzAdBgNVBAoTFlRFQ05PTE9HSUEtSU5URUdSQUwtU0ExDjAM
BgNVBAsTBUltYXNEMQ8wDQYDVQQDEwZwbWNoczkxEDAOBgNVBCkTB1RJU0FWUE4x
IzAhBgkqhkiG9w0BCQEWFGNsb3VkQHRlY2ludGVncmFsLmNsMIIBIjANBgkqhkiG
9w0BAQEFAAOCAQ8AMIIBCgKCAQEA0Mky3DWiw82YCTV5xs/9hEYKpnq6EqmFvs7v
GoJ+u0MHyWajjF0amD78dKGf5n7wqwlFmbb5SnRkcGcsTJmSqrWzIc1a/e1/YPxh
Qr0FXtKeM6Ggm/QoFb1YgdDkPbPuWXFLSrg72aQkUVl++fZ1m25xkc9zQNcCQXQC
tlQqBQAiCfDipx5HmZn/8G+OsNDZJ8+5dPeKxKXa4fJaloRnAkIVx6NKKAKdr3oQ
piy9UsstEhMo5Gu0OTOMf3nCV6use5w5SLmXbBFPH6cmyaASHM7GORWjo9mp96ex
kMFJEiNPVIQQ4jWzJoFjVI61eIts3MmNCWLxV8WSJwbdRHRotQIDAQABo4IBgzCC
AX8wCQYDVR0TBAIwADAtBglghkgBhvhCAQ0EIBYeRWFzeS1SU0EgR2VuZXJhdGVk
IENlcnRpZmljYXRlMB0GA1UdDgQWBBQil1MTfsGWjkuQfA4Dh9XLk4Wp3TCB7gYD
VR0jBIHmMIHjgBQb547at8CuiAHW/c+KfUFxGTCHcaGBv6SBvDCBuTELMAkGA1UE
BhMCQ0wxCzAJBgNVBAgTAlNBMREwDwYDVQQHEwhTYW50aWFnbzEfMB0GA1UEChMW
VEVDTk9MT0dJQS1JTlRFR1JBTC1TQTEOMAwGA1UECxMFSW1hc0QxIjAgBgNVBAMT
GVRFQ05PTE9HSUEtSU5URUdSQUwtU0EgQ0ExEDAOBgNVBCkTB1RJU0FWUE4xIzAh
BgkqhkiG9w0BCQEWFGNsb3VkQHRlY2ludGVncmFsLmNsggkA46cX/FP7gf8wEwYD
VR0lBAwwCgYIKwYBBQUHAwIwCwYDVR0PBAQDAgeAMBEGA1UdEQQKMAiCBnBtY2hz
OTANBgkqhkiG9w0BAQsFAAOCAQEAZpHs6QUhqA3gfseSFDBcnv95e9Ob903eFmXB
rw8cKzx3uTJZKrgOpdorMF4A6OghpzPs+axR9gQuNGOvS9uTDcZ/P/DKziS4Pxja
OmofQ4Gdk7tre+qI7v3YZ3AfYWFtM0veMNAdMv4njQw6txv44xQWnRD1PWljWVlu
zokI/LSlh/TXmnjeYf0/GMeMNkzWuLyjapPD3GVqHfFz6o1PfgKG8RmztDuU03vj
R14A9HbHa+C7dsfTM3gqTbNZXc8BYhecHkaAv0m65GZWDTp1mi29A8ApNyQ2Hgcw
InCG4Q7CesysYOfR/tizPyvt+oYCBMszPnvTbxXenVbgVJqM8A==
-----END CERTIFICATE-----
