Certificate:
    Data:
        Version: 3 (0x2)
        Serial Number: 7 (0x7)
        Signature Algorithm: sha256WithRSAEncryption
        Issuer: C=CL, ST=SA, L=Santiago, O=TECNOLOGIA-INTEGRAL-SA, OU=ImasD, CN=TECNOLOGIA-INTEGRAL-SA CA/name=TISAVPN/emailAddress=cloud@tecintegral.cl
        Validity
            Not Before: Aug 21 12:52:59 2019 GMT
            Not After : Aug 18 12:52:59 2029 GMT
        Subject: C=CL, ST=SA, L=Santiago, O=TECNOLOGIA-INTEGRAL-SA, OU=ImasD, CN=sls/name=TISAVPN/emailAddress=cloud@tecintegral.cl
        Subject Public Key Info:
            Public Key Algorithm: rsaEncryption
                RSA Public-Key: (2048 bit)
                Modulus:
                    00:d1:3f:93:df:6e:33:12:c7:86:68:fb:df:06:ba:
                    d6:4c:de:e0:d5:58:18:16:5a:15:cc:f0:83:20:62:
                    b7:7e:8d:d6:95:cf:46:db:d0:7c:9c:ba:b5:39:f6:
                    f8:c5:ad:2f:3c:ac:31:60:0c:2b:23:40:ea:e6:f1:
                    2f:0c:d0:fc:54:e7:2a:52:28:5d:d0:87:ea:b2:dd:
                    65:6e:8a:f4:aa:ae:60:8a:13:98:33:a5:ca:a9:cd:
                    99:8a:86:47:2e:dc:52:f6:53:68:47:ae:67:41:8c:
                    ea:4a:61:d3:dc:24:53:72:ec:4f:4f:76:94:5e:85:
                    92:53:0e:20:47:65:3e:76:1f:c8:08:77:26:88:12:
                    48:19:92:1e:59:98:69:51:49:c4:f2:d7:23:7a:dd:
                    9a:a9:47:cb:57:16:c6:a3:0d:89:18:b8:7a:7f:05:
                    81:15:e8:4c:ce:2b:77:73:3e:99:81:b4:54:1a:92:
                    f9:f2:90:48:9e:dc:f3:96:40:3c:eb:2e:03:4c:a2:
                    b2:e5:86:97:3d:7e:f6:50:70:40:43:46:0e:1b:81:
                    d2:cd:82:61:72:d4:7b:e2:47:2f:14:a3:93:18:62:
                    e2:60:ea:f9:fa:dd:67:50:83:c2:08:af:64:12:21:
                    e7:1f:95:33:b7:24:c4:21:d2:dc:98:09:22:24:87:
                    dd:f5
                Exponent: 65537 (0x10001)
        X509v3 extensions:
            X509v3 Basic Constraints: 
                CA:FALSE
            Netscape Comment: 
                Easy-RSA Generated Certificate
            X509v3 Subject Key Identifier: 
                AF:5C:03:86:D1:8F:0E:74:88:9B:9D:EA:FF:14:F7:1A:89:1F:75:ED
            X509v3 Authority Key Identifier: 
                keyid:1B:E7:8E:DA:B7:C0:AE:88:01:D6:FD:CF:8A:7D:41:71:19:30:87:71
                DirName:/C=CL/ST=SA/L=Santiago/O=TECNOLOGIA-INTEGRAL-SA/OU=ImasD/CN=TECNOLOGIA-INTEGRAL-SA CA/name=TISAVPN/emailAddress=cloud@tecintegral.cl
                serial:E3:A7:17:FC:53:FB:81:FF

            X509v3 Extended Key Usage: 
                TLS Web Client Authentication
            X509v3 Key Usage: 
                Digital Signature
            X509v3 Subject Alternative Name: 
                DNS:sls
    Signature Algorithm: sha256WithRSAEncryption
         31:33:87:b8:1e:4c:dd:e4:df:ae:37:86:de:fc:08:fc:e5:96:
         d1:3c:1e:5e:8b:b1:47:b9:9c:51:08:35:01:f1:99:81:77:45:
         5c:e1:d6:47:8a:0e:a1:19:b9:a2:72:84:fb:c8:bc:1b:4c:34:
         98:70:4f:a0:04:83:3d:67:3c:d7:49:22:55:09:b2:23:e4:54:
         2d:b8:c2:e4:c0:54:43:f7:ca:77:a9:af:37:52:55:b1:88:60:
         c0:a3:b3:19:02:ff:0b:c4:df:0a:cc:fd:79:6e:98:51:47:04:
         07:15:d9:c6:a2:b7:25:90:98:d3:ea:af:11:3b:ea:e7:d6:4f:
         f3:d7:4e:d8:4c:ff:e8:fd:1e:19:bb:35:39:51:72:d3:79:3e:
         91:e9:0f:8f:66:55:1e:8e:55:07:02:54:3c:3b:6c:c9:2e:44:
         14:ff:b4:3f:dd:ea:2e:b2:3f:04:f5:5d:34:a4:9a:ce:4c:0b:
         25:e3:5e:42:5c:cf:5f:1c:76:4f:9a:fd:61:2c:ba:5f:d2:2a:
         03:60:84:c7:fd:6a:42:7b:1e:9d:63:ab:36:50:98:0b:67:f8:
         9b:9c:ab:f0:fe:a1:0b:58:05:0c:84:9b:04:9f:a7:36:45:f3:
         ee:d4:8d:4b:b0:de:c0:07:5a:37:c2:c8:68:11:5d:b5:34:bd:
         2e:2c:87:97
-----BEGIN CERTIFICATE-----
MIIFWzCCBEOgAwIBAgIBBzANBgkqhkiG9w0BAQsFADCBuTELMAkGA1UEBhMCQ0wx
CzAJBgNVBAgTAlNBMREwDwYDVQQHEwhTYW50aWFnbzEfMB0GA1UEChMWVEVDTk9M
T0dJQS1JTlRFR1JBTC1TQTEOMAwGA1UECxMFSW1hc0QxIjAgBgNVBAMTGVRFQ05P
TE9HSUEtSU5URUdSQUwtU0EgQ0ExEDAOBgNVBCkTB1RJU0FWUE4xIzAhBgkqhkiG
9w0BCQEWFGNsb3VkQHRlY2ludGVncmFsLmNsMB4XDTE5MDgyMTEyNTI1OVoXDTI5
MDgxODEyNTI1OVowgaMxCzAJBgNVBAYTAkNMMQswCQYDVQQIEwJTQTERMA8GA1UE
BxMIU2FudGlhZ28xHzAdBgNVBAoTFlRFQ05PTE9HSUEtSU5URUdSQUwtU0ExDjAM
BgNVBAsTBUltYXNEMQwwCgYDVQQDEwNzbHMxEDAOBgNVBCkTB1RJU0FWUE4xIzAh
BgkqhkiG9w0BCQEWFGNsb3VkQHRlY2ludGVncmFsLmNsMIIBIjANBgkqhkiG9w0B
AQEFAAOCAQ8AMIIBCgKCAQEA0T+T324zEseGaPvfBrrWTN7g1VgYFloVzPCDIGK3
fo3Wlc9G29B8nLq1Ofb4xa0vPKwxYAwrI0Dq5vEvDND8VOcqUihd0Ifqst1lbor0
qq5gihOYM6XKqc2ZioZHLtxS9lNoR65nQYzqSmHT3CRTcuxPT3aUXoWSUw4gR2U+
dh/ICHcmiBJIGZIeWZhpUUnE8tcjet2aqUfLVxbGow2JGLh6fwWBFehMzit3cz6Z
gbRUGpL58pBIntzzlkA86y4DTKKy5YaXPX72UHBAQ0YOG4HSzYJhctR74kcvFKOT
GGLiYOr5+t1nUIPCCK9kEiHnH5UztyTEIdLcmAkiJIfd9QIDAQABo4IBgDCCAXww
CQYDVR0TBAIwADAtBglghkgBhvhCAQ0EIBYeRWFzeS1SU0EgR2VuZXJhdGVkIENl
cnRpZmljYXRlMB0GA1UdDgQWBBSvXAOG0Y8OdIibner/FPcaiR917TCB7gYDVR0j
BIHmMIHjgBQb547at8CuiAHW/c+KfUFxGTCHcaGBv6SBvDCBuTELMAkGA1UEBhMC
Q0wxCzAJBgNVBAgTAlNBMREwDwYDVQQHEwhTYW50aWFnbzEfMB0GA1UEChMWVEVD
Tk9MT0dJQS1JTlRFR1JBTC1TQTEOMAwGA1UECxMFSW1hc0QxIjAgBgNVBAMTGVRF
Q05PTE9HSUEtSU5URUdSQUwtU0EgQ0ExEDAOBgNVBCkTB1RJU0FWUE4xIzAhBgkq
hkiG9w0BCQEWFGNsb3VkQHRlY2ludGVncmFsLmNsggkA46cX/FP7gf8wEwYDVR0l
BAwwCgYIKwYBBQUHAwIwCwYDVR0PBAQDAgeAMA4GA1UdEQQHMAWCA3NsczANBgkq
hkiG9w0BAQsFAAOCAQEAMTOHuB5M3eTfrjeG3vwI/OWW0TweXouxR7mcUQg1AfGZ
gXdFXOHWR4oOoRm5onKE+8i8G0w0mHBPoASDPWc810kiVQmyI+RULbjC5MBUQ/fK
d6mvN1JVsYhgwKOzGQL/C8TfCsz9eW6YUUcEBxXZxqK3JZCY0+qvETvq59ZP89dO
2Ez/6P0eGbs1OVFy03k+kekPj2ZVHo5VBwJUPDtsyS5EFP+0P93qLrI/BPVdNKSa
zkwLJeNeQlzPXxx2T5r9YSy6X9IqA2CEx/1qQnsenWOrNlCYC2f4m5yr8P6hC1gF
DISbBJ+nNkXz7tSNS7DewAdaN8LIaBFdtTS9LiyHlw==
-----END CERTIFICATE-----
