Certificate:
    Data:
        Version: 3 (0x2)
        Serial Number: 10 (0xa)
    Signature Algorithm: sha1WithRSAEncryption
        Issuer: C=CL, ST=SA, L=Santiago, O=TECNOLOGIA-INTEGRAL-SA, OU=ImasD, CN=TECNOLOGIA-INTEGRAL-SA CA/name=TISAVPN/emailAddress=cloud@tecintegral.cl
        Validity
            Not Before: Nov 25 12:38:34 2019 GMT
            Not After : Nov 22 12:38:34 2029 GMT
        Subject: C=CL, ST=SA, L=Santiago, O=TECNOLOGIA-INTEGRAL-SA, OU=ImasD, CN=smartphone-slara/name=TISAVPN/emailAddress=cloud@tecintegral.cl
        Subject Public Key Info:
            Public Key Algorithm: rsaEncryption
                Public-Key: (2048 bit)
                Modulus:
                    00:b6:8f:e4:f4:0e:77:ed:86:cd:91:ea:0a:96:d6:
                    d1:5f:b2:4c:05:b6:a3:ff:11:9e:76:d4:39:1f:c0:
                    17:7b:de:17:dd:5b:02:cf:0c:f7:e9:03:2b:4c:41:
                    21:db:c4:10:ea:34:0e:6e:63:d0:43:a4:e2:a8:51:
                    c8:9e:15:89:4b:16:af:fb:61:61:e5:86:6a:87:ad:
                    91:fc:40:37:ef:13:fc:54:dd:f4:07:e6:69:6b:3d:
                    7a:bc:6b:32:92:29:8e:da:7c:8b:05:73:07:03:e9:
                    8a:68:1f:b6:1c:48:a3:f1:87:c8:1a:47:b1:32:fb:
                    72:62:e3:d5:fb:d8:f7:3b:56:3f:69:1c:67:d1:7b:
                    c4:6b:32:23:b1:d8:20:df:27:ab:0f:7f:f6:b3:91:
                    8c:29:f6:53:ec:9b:0f:ea:05:49:56:dd:5e:08:4f:
                    89:eb:ed:be:6d:4e:f7:85:6a:49:10:ee:59:12:cf:
                    73:f0:48:88:14:88:77:28:e3:cb:b6:bb:fe:44:30:
                    c3:fc:c4:f4:bd:41:7f:ce:7b:23:04:93:c4:cd:46:
                    54:0e:cb:dd:d5:84:0f:66:38:29:06:5d:85:a0:3a:
                    f7:6a:7f:3a:b3:cd:77:69:46:93:30:f5:ac:93:90:
                    7e:2e:40:88:e8:5a:24:93:61:b6:0c:55:b5:a1:76:
                    c7:73
                Exponent: 65537 (0x10001)
        X509v3 extensions:
            X509v3 Basic Constraints: 
                CA:FALSE
            Netscape Comment: 
                Easy-RSA Generated Certificate
            X509v3 Subject Key Identifier: 
                A1:4D:D5:43:48:59:E0:F5:F3:DC:F3:33:D9:C0:50:D7:EE:FB:B2:C6
            X509v3 Authority Key Identifier: 
                keyid:1B:E7:8E:DA:B7:C0:AE:88:01:D6:FD:CF:8A:7D:41:71:19:30:87:71
                DirName:/C=CL/ST=SA/L=Santiago/O=TECNOLOGIA-INTEGRAL-SA/OU=ImasD/CN=TECNOLOGIA-INTEGRAL-SA CA/name=TISAVPN/emailAddress=cloud@tecintegral.cl
                serial:E3:A7:17:FC:53:FB:81:FF

            X509v3 Extended Key Usage: 
                TLS Web Client Authentication
            X509v3 Key Usage: 
                Digital Signature
    Signature Algorithm: sha1WithRSAEncryption
         42:b8:e9:75:0b:fb:a0:be:ab:34:94:b3:8d:09:5b:91:fa:89:
         6f:18:78:99:46:2c:5e:d1:30:bf:d4:d6:8b:f2:ea:af:9b:0f:
         0b:b5:fa:1f:2c:9b:df:db:d2:2e:5b:e0:04:7d:31:43:8b:25:
         a5:92:4e:49:11:e3:1e:4b:1b:6f:a3:f7:c0:33:f3:28:fb:f2:
         3e:2e:98:91:a0:6d:b1:b3:ad:5c:d0:b2:c4:75:54:43:d1:32:
         b6:14:38:0f:6e:ea:28:81:bd:84:ae:8d:dd:c0:64:4d:50:fa:
         d0:ba:cd:f4:27:62:26:92:b4:e9:30:58:83:01:b8:87:2a:3f:
         b6:5a:0b:fa:fe:d9:50:cc:7d:e4:a1:c8:4f:7b:81:d7:1c:2e:
         5f:6f:ce:cb:e5:33:a9:04:d2:59:12:f8:9c:1b:34:bc:c4:24:
         a1:1c:00:9d:d7:f1:ef:d8:57:9f:98:41:cf:ae:3d:16:f5:e7:
         e7:2e:72:4f:ea:b4:28:07:d4:7d:9b:27:3f:66:56:2c:81:b2:
         d1:bd:64:cb:45:d5:21:a0:30:9d:82:c1:a2:88:82:3f:e8:5b:
         70:4b:68:d8:79:9d:d8:35:1c:ab:94:6d:dc:b7:86:be:a8:13:
         5d:bf:ef:c7:1b:2d:49:72:d5:6f:4c:6c:52:51:58:22:dd:1e:
         5d:89:48:5f
-----BEGIN CERTIFICATE-----
MIIFWDCCBECgAwIBAgIBCjANBgkqhkiG9w0BAQUFADCBuTELMAkGA1UEBhMCQ0wx
CzAJBgNVBAgTAlNBMREwDwYDVQQHEwhTYW50aWFnbzEfMB0GA1UEChMWVEVDTk9M
T0dJQS1JTlRFR1JBTC1TQTEOMAwGA1UECxMFSW1hc0QxIjAgBgNVBAMTGVRFQ05P
TE9HSUEtSU5URUdSQUwtU0EgQ0ExEDAOBgNVBCkTB1RJU0FWUE4xIzAhBgkqhkiG
9w0BCQEWFGNsb3VkQHRlY2ludGVncmFsLmNsMB4XDTE5MTEyNTEyMzgzNFoXDTI5
MTEyMjEyMzgzNFowgbAxCzAJBgNVBAYTAkNMMQswCQYDVQQIEwJTQTERMA8GA1UE
BxMIU2FudGlhZ28xHzAdBgNVBAoTFlRFQ05PTE9HSUEtSU5URUdSQUwtU0ExDjAM
BgNVBAsTBUltYXNEMRkwFwYDVQQDExBzbWFydHBob25lLXNsYXJhMRAwDgYDVQQp
EwdUSVNBVlBOMSMwIQYJKoZIhvcNAQkBFhRjbG91ZEB0ZWNpbnRlZ3JhbC5jbDCC
ASIwDQYJKoZIhvcNAQEBBQADggEPADCCAQoCggEBALaP5PQOd+2GzZHqCpbW0V+y
TAW2o/8RnnbUOR/AF3veF91bAs8M9+kDK0xBIdvEEOo0Dm5j0EOk4qhRyJ4ViUsW
r/thYeWGaoetkfxAN+8T/FTd9AfmaWs9erxrMpIpjtp8iwVzBwPpimgfthxIo/GH
yBpHsTL7cmLj1fvY9ztWP2kcZ9F7xGsyI7HYIN8nqw9/9rORjCn2U+ybD+oFSVbd
XghPievtvm1O94VqSRDuWRLPc/BIiBSIdyjjy7a7/kQww/zE9L1Bf857IwSTxM1G
VA7L3dWED2Y4KQZdhaA692p/OrPNd2lGkzD1rJOQfi5AiOhaJJNhtgxVtaF2x3MC
AwEAAaOCAXAwggFsMAkGA1UdEwQCMAAwLQYJYIZIAYb4QgENBCAWHkVhc3ktUlNB
IEdlbmVyYXRlZCBDZXJ0aWZpY2F0ZTAdBgNVHQ4EFgQUoU3VQ0hZ4PXz3PMz2cBQ
1+77ssYwge4GA1UdIwSB5jCB44AUG+eO2rfArogB1v3Pin1BcRkwh3Ghgb+kgbww
gbkxCzAJBgNVBAYTAkNMMQswCQYDVQQIEwJTQTERMA8GA1UEBxMIU2FudGlhZ28x
HzAdBgNVBAoTFlRFQ05PTE9HSUEtSU5URUdSQUwtU0ExDjAMBgNVBAsTBUltYXNE
MSIwIAYDVQQDExlURUNOT0xPR0lBLUlOVEVHUkFMLVNBIENBMRAwDgYDVQQpEwdU
SVNBVlBOMSMwIQYJKoZIhvcNAQkBFhRjbG91ZEB0ZWNpbnRlZ3JhbC5jbIIJAOOn
F/xT+4H/MBMGA1UdJQQMMAoGCCsGAQUFBwMCMAsGA1UdDwQEAwIHgDANBgkqhkiG
9w0BAQUFAAOCAQEAQrjpdQv7oL6rNJSzjQlbkfqJbxh4mUYsXtEwv9TWi/Lqr5sP
C7X6Hyyb39vSLlvgBH0xQ4slpZJOSRHjHksbb6P3wDPzKPvyPi6YkaBtsbOtXNCy
xHVUQ9EythQ4D27qKIG9hK6N3cBkTVD60LrN9CdiJpK06TBYgwG4hyo/tloL+v7Z
UMx95KHIT3uB1xwuX2/Oy+UzqQTSWRL4nBs0vMQkoRwAndfx79hXn5hBz649FvXn
5y5yT+q0KAfUfZsnP2ZWLIGy0b1ky0XVIaAwnYLBooiCP+hbcEto2Hmd2DUcq5Rt
3LeGvqgTXb/vxxstSXLVb0xsUlFYIt0eXYlIXw==
-----END CERTIFICATE-----
