Certificate:
    Data:
        Version: 3 (0x2)
        Serial Number: 3 (0x3)
    Signature Algorithm: sha256WithRSAEncryption
        Issuer: C=CL, ST=SA, L=Santiago, O=TECNOLOGIA-INTEGRAL-SA, OU=ImasD, CN=TECNOLOGIA-INTEGRAL-SA CA/name=TISAVPN/emailAddress=cloud@tecintegral.cl
        Validity
            Not Before: Dec 19 15:59:16 2018 GMT
            Not After : Dec 16 15:59:16 2028 GMT
        Subject: C=CL, ST=SA, L=Santiago, O=TECNOLOGIA-INTEGRAL-SA, OU=ImasD, CN=dsb/name=TISAVPN/emailAddress=cloud@tecintegral.cl
        Subject Public Key Info:
            Public Key Algorithm: rsaEncryption
                Public-Key: (2048 bit)
                Modulus:
                    00:a9:6a:22:08:f2:26:18:e2:b4:f0:4c:a2:28:c5:
                    28:00:b9:51:15:5e:54:83:f4:e4:e4:62:95:17:29:
                    b9:2c:f0:38:f1:18:6b:4d:53:10:f0:46:72:4c:53:
                    de:9c:e2:a5:25:39:a1:0e:7b:43:8b:db:bd:7d:52:
                    2a:bf:10:91:a0:26:09:4d:58:53:92:e9:eb:86:76:
                    50:b2:68:bc:9d:7f:76:fb:7c:50:c5:dd:22:87:8d:
                    b6:55:3a:51:7b:da:4b:2c:94:08:c1:70:81:db:7a:
                    84:7b:c4:6e:81:aa:ef:f1:12:46:a6:ad:94:30:f9:
                    d8:4e:55:61:44:02:7f:9b:e1:9b:d3:2c:76:48:e1:
                    8e:c1:2e:16:9a:bf:06:90:cf:5e:65:0b:62:bb:6a:
                    25:e9:27:5f:8e:41:76:35:88:d9:e8:ef:16:c8:ea:
                    a4:e9:cb:76:9a:63:8e:89:0e:ac:e1:44:15:55:4f:
                    fa:f2:fa:d5:ea:b5:07:54:60:26:89:e1:11:28:39:
                    02:56:0a:5a:12:7b:71:2d:e8:16:3e:c0:44:58:1e:
                    2a:c6:b6:9b:8e:b7:e5:ce:0e:98:84:4b:e5:31:c4:
                    d6:ba:6c:e5:ac:5b:cf:f2:91:dd:96:a0:0a:f6:38:
                    2f:45:5a:d2:48:77:64:7f:66:28:44:8a:89:e2:9d:
                    c2:01
                Exponent: 65537 (0x10001)
        X509v3 extensions:
            X509v3 Basic Constraints: 
                CA:FALSE
            Netscape Comment: 
                Easy-RSA Generated Certificate
            X509v3 Subject Key Identifier: 
                5E:AF:01:4F:EB:7B:98:A0:30:69:05:E2:43:CD:17:14:3C:D4:21:B1
            X509v3 Authority Key Identifier: 
                keyid:1B:E7:8E:DA:B7:C0:AE:88:01:D6:FD:CF:8A:7D:41:71:19:30:87:71
                DirName:/C=CL/ST=SA/L=Santiago/O=TECNOLOGIA-INTEGRAL-SA/OU=ImasD/CN=TECNOLOGIA-INTEGRAL-SA CA/name=TISAVPN/emailAddress=cloud@tecintegral.cl
                serial:E3:A7:17:FC:53:FB:81:FF

            X509v3 Extended Key Usage: 
                TLS Web Client Authentication
            X509v3 Key Usage: 
                Digital Signature
            X509v3 Subject Alternative Name: 
                DNS:dsb
    Signature Algorithm: sha256WithRSAEncryption
         50:c3:d6:1d:86:ce:6e:58:9b:b7:ad:b5:1a:1d:2e:8a:05:89:
         3d:dc:03:7e:26:7d:85:57:ce:6a:ca:f1:d3:bf:76:7d:68:27:
         5d:75:26:00:74:c3:40:02:0a:9f:d0:ca:dd:3f:b6:4c:a9:38:
         f9:90:bf:0c:82:19:4a:a4:4e:5f:0d:4e:02:c4:46:90:9b:88:
         a1:a1:ed:96:cd:98:56:e8:db:5d:d1:42:9b:cb:bb:7b:b7:4a:
         ff:50:bb:ce:d1:33:56:30:dd:26:7c:01:1f:78:1f:62:06:e4:
         d1:05:68:88:b7:a2:10:3d:40:71:89:fe:bb:eb:e7:8b:14:ca:
         8d:fe:19:9e:0c:04:47:50:81:0a:39:ad:4a:ff:87:04:dc:01:
         95:62:b6:15:aa:4c:80:ac:e6:e0:27:e3:62:71:52:d4:f0:a6:
         f7:e9:65:f3:76:91:b7:fc:3b:0d:82:bf:d4:99:35:ed:4a:bd:
         57:50:a1:20:33:ff:71:b0:77:8f:41:d4:c9:71:15:47:a4:fd:
         e8:13:1b:3a:02:d7:9e:e2:7b:31:b4:79:f5:26:8b:10:a3:92:
         2a:dd:1d:9e:6e:32:e1:6e:52:96:a3:c9:64:2b:c6:c6:ed:4c:
         ca:43:49:a9:67:dc:cb:3e:4e:38:60:b3:21:ac:66:69:5b:26:
         d6:27:c5:c4
-----BEGIN CERTIFICATE-----
MIIFWzCCBEOgAwIBAgIBAzANBgkqhkiG9w0BAQsFADCBuTELMAkGA1UEBhMCQ0wx
CzAJBgNVBAgTAlNBMREwDwYDVQQHEwhTYW50aWFnbzEfMB0GA1UEChMWVEVDTk9M
T0dJQS1JTlRFR1JBTC1TQTEOMAwGA1UECxMFSW1hc0QxIjAgBgNVBAMTGVRFQ05P
TE9HSUEtSU5URUdSQUwtU0EgQ0ExEDAOBgNVBCkTB1RJU0FWUE4xIzAhBgkqhkiG
9w0BCQEWFGNsb3VkQHRlY2ludGVncmFsLmNsMB4XDTE4MTIxOTE1NTkxNloXDTI4
MTIxNjE1NTkxNlowgaMxCzAJBgNVBAYTAkNMMQswCQYDVQQIEwJTQTERMA8GA1UE
BxMIU2FudGlhZ28xHzAdBgNVBAoTFlRFQ05PTE9HSUEtSU5URUdSQUwtU0ExDjAM
BgNVBAsTBUltYXNEMQwwCgYDVQQDEwNkc2IxEDAOBgNVBCkTB1RJU0FWUE4xIzAh
BgkqhkiG9w0BCQEWFGNsb3VkQHRlY2ludGVncmFsLmNsMIIBIjANBgkqhkiG9w0B
AQEFAAOCAQ8AMIIBCgKCAQEAqWoiCPImGOK08EyiKMUoALlRFV5Ug/Tk5GKVFym5
LPA48RhrTVMQ8EZyTFPenOKlJTmhDntDi9u9fVIqvxCRoCYJTVhTkunrhnZQsmi8
nX92+3xQxd0ih422VTpRe9pLLJQIwXCB23qEe8Rugarv8RJGpq2UMPnYTlVhRAJ/
m+Gb0yx2SOGOwS4Wmr8GkM9eZQtiu2ol6SdfjkF2NYjZ6O8WyOqk6ct2mmOOiQ6s
4UQVVU/68vrV6rUHVGAmieERKDkCVgpaEntxLegWPsBEWB4qxrabjrflzg6YhEvl
McTWumzlrFvP8pHdlqAK9jgvRVrSSHdkf2YoRIqJ4p3CAQIDAQABo4IBgDCCAXww
CQYDVR0TBAIwADAtBglghkgBhvhCAQ0EIBYeRWFzeS1SU0EgR2VuZXJhdGVkIENl
cnRpZmljYXRlMB0GA1UdDgQWBBRerwFP63uYoDBpBeJDzRcUPNQhsTCB7gYDVR0j
BIHmMIHjgBQb547at8CuiAHW/c+KfUFxGTCHcaGBv6SBvDCBuTELMAkGA1UEBhMC
Q0wxCzAJBgNVBAgTAlNBMREwDwYDVQQHEwhTYW50aWFnbzEfMB0GA1UEChMWVEVD
Tk9MT0dJQS1JTlRFR1JBTC1TQTEOMAwGA1UECxMFSW1hc0QxIjAgBgNVBAMTGVRF
Q05PTE9HSUEtSU5URUdSQUwtU0EgQ0ExEDAOBgNVBCkTB1RJU0FWUE4xIzAhBgkq
hkiG9w0BCQEWFGNsb3VkQHRlY2ludGVncmFsLmNsggkA46cX/FP7gf8wEwYDVR0l
BAwwCgYIKwYBBQUHAwIwCwYDVR0PBAQDAgeAMA4GA1UdEQQHMAWCA2RzYjANBgkq
hkiG9w0BAQsFAAOCAQEAUMPWHYbOblibt621Gh0uigWJPdwDfiZ9hVfOasrx0792
fWgnXXUmAHTDQAIKn9DK3T+2TKk4+ZC/DIIZSqROXw1OAsRGkJuIoaHtls2YVujb
XdFCm8u7e7dK/1C7ztEzVjDdJnwBH3gfYgbk0QVoiLeiED1AcYn+u+vnixTKjf4Z
ngwER1CBCjmtSv+HBNwBlWK2FapMgKzm4CfjYnFS1PCm9+ll83aRt/w7DYK/1Jk1
7Uq9V1ChIDP/cbB3j0HUyXEVR6T96BMbOgLXnuJ7MbR59SaLEKOSKt0dnm4y4W5S
lqPJZCvGxu1MykNJqWfcyz5OOGCzIaxmaVsm1ifFxA==
-----END CERTIFICATE-----
